target datalayout = "e-m:e-p270:32:32-p271:32:32-p272:64:64-i64:64-i128:128-f80:128-n8:16:32:64-S128"
target triple = "x86_64-pc-linux-gnu"

%struct.UTrie2 = type { ptr, ptr, ptr, i32, i32, i16, i16, i32, i32, i32, i32, ptr, i32, i8, i8, i16, ptr }
%"class.icu_77::UTrie2StringIterator" = type <{ ptr, ptr, ptr, i32, [4 x i8] }>
%"class.icu_77::UTrie2StringIterator.base" = type <{ ptr, ptr, ptr, i32 }>
%"class.icu_77::ForwardUTrie2StringIterator" = type { %"class.icu_77::UTrie2StringIterator.base", ptr }

; Function Attrs: mustprogress nounwind uwtable
define noundef zeroext i16 @_ZN6icu_7727ForwardUTrie2StringIterator6next16Ev(ptr noundef nonnull align 8 dereferenceable(40) %0) #1 align 2 {
  %2 = alloca i16, align 2
  %3 = alloca ptr, align 8
  %4 = alloca i16, align 2
  %5 = alloca i16, align 2
  store ptr %0, ptr %3, align 8, !tbaa !83
  %6 = load ptr, ptr %3, align 8
  %7 = getelementptr inbounds nuw %"class.icu_77::UTrie2StringIterator", ptr %6, i32 0, i32 2
  %8 = load ptr, ptr %7, align 8, !tbaa !76
  %9 = getelementptr inbounds nuw %"class.icu_77::UTrie2StringIterator", ptr %6, i32 0, i32 1
  store ptr %8, ptr %9, align 8, !tbaa !73
  %10 = getelementptr inbounds nuw %"class.icu_77::UTrie2StringIterator", ptr %6, i32 0, i32 2
  %11 = load ptr, ptr %10, align 8, !tbaa !76
  %12 = getelementptr inbounds nuw %"class.icu_77::ForwardUTrie2StringIterator", ptr %6, i32 0, i32 1
  %13 = load ptr, ptr %12, align 8, !tbaa !85
  %14 = icmp eq ptr %11, %13
  br i1 %14, label %15, label %22

15:                                               ; preds = %1
  %16 = getelementptr inbounds nuw %"class.icu_77::UTrie2StringIterator", ptr %6, i32 0, i32 3
  store i32 -1, ptr %16, align 8, !tbaa !79
  %17 = getelementptr inbounds nuw %"class.icu_77::UTrie2StringIterator", ptr %6, i32 0, i32 0
  %18 = load ptr, ptr %17, align 8, !tbaa !80
  %19 = getelementptr inbounds nuw %struct.UTrie2, ptr %18, i32 0, i32 8
  %20 = load i32, ptr %19, align 8, !tbaa !22
  %21 = trunc i32 %20 to i16
  store i16 %21, ptr %2, align 2
  br label %166

22:                                               ; preds = %1
  call void @llvm.lifetime.start.p0(i64 2, ptr %4) #8
  br label %23

23:                                               ; preds = %22
  call void @llvm.lifetime.start.p0(i64 2, ptr %5) #8
  %24 = getelementptr inbounds nuw %"class.icu_77::UTrie2StringIterator", ptr %6, i32 0, i32 2
  %25 = load ptr, ptr %24, align 8, !tbaa !76
  %26 = getelementptr inbounds nuw i16, ptr %25, i32 1
  store ptr %26, ptr %24, align 8, !tbaa !76
  %27 = load i16, ptr %25, align 2, !tbaa !81
  %28 = zext i16 %27 to i32
  %29 = getelementptr inbounds nuw %"class.icu_77::UTrie2StringIterator", ptr %6, i32 0, i32 3
  store i32 %28, ptr %29, align 8, !tbaa !79
  %30 = getelementptr inbounds nuw %"class.icu_77::UTrie2StringIterator", ptr %6, i32 0, i32 3
  %31 = load i32, ptr %30, align 8, !tbaa !79
  %32 = and i32 %31, -1024
  %33 = icmp eq i32 %32, 55296
  br i1 %33, label %59, label %34

34:                                               ; preds = %23
  %35 = getelementptr inbounds nuw %"class.icu_77::UTrie2StringIterator", ptr %6, i32 0, i32 0
  %36 = load ptr, ptr %35, align 8, !tbaa !80
  %37 = getelementptr inbounds nuw %struct.UTrie2, ptr %36, i32 0, i32 0
  %38 = load ptr, ptr %37, align 8, !tbaa !16
  %39 = getelementptr inbounds nuw %"class.icu_77::UTrie2StringIterator", ptr %6, i32 0, i32 0
  %40 = load ptr, ptr %39, align 8, !tbaa !80
  %41 = getelementptr inbounds nuw %struct.UTrie2, ptr %40, i32 0, i32 0
  %42 = load ptr, ptr %41, align 8, !tbaa !16
  %43 = getelementptr inbounds nuw %"class.icu_77::UTrie2StringIterator", ptr %6, i32 0, i32 3
  %44 = load i32, ptr %43, align 8, !tbaa !79
  %45 = ashr i32 %44, 5
  %46 = add nsw i32 0, %45
  %47 = sext i32 %46 to i64
  %48 = getelementptr inbounds i16, ptr %42, i64 %47
  %49 = load i16, ptr %48, align 2, !tbaa !17
  %50 = zext i16 %49 to i32
  %51 = shl i32 %50, 2
  %52 = getelementptr inbounds nuw %"class.icu_77::UTrie2StringIterator", ptr %6, i32 0, i32 3
  %53 = load i32, ptr %52, align 8, !tbaa !79
  %54 = and i32 %53, 31
  %55 = add nsw i32 %51, %54
  %56 = sext i32 %55 to i64
  %57 = getelementptr inbounds i16, ptr %38, i64 %56
  %58 = load i16, ptr %57, align 2, !tbaa !17
  store i16 %58, ptr %4, align 2, !tbaa !17
  br label %162

59:                                               ; preds = %23
  %60 = getelementptr inbounds nuw %"class.icu_77::UTrie2StringIterator", ptr %6, i32 0, i32 2
  %61 = load ptr, ptr %60, align 8, !tbaa !76
  %62 = getelementptr inbounds nuw %"class.icu_77::ForwardUTrie2StringIterator", ptr %6, i32 0, i32 1
  %63 = load ptr, ptr %62, align 8, !tbaa !85
  %64 = icmp eq ptr %61, %63
  br i1 %64, label %72, label %65

65:                                               ; preds = %59
  %66 = getelementptr inbounds nuw %"class.icu_77::UTrie2StringIterator", ptr %6, i32 0, i32 2
  %67 = load ptr, ptr %66, align 8, !tbaa !76
  %68 = load i16, ptr %67, align 2, !tbaa !81
  store i16 %68, ptr %5, align 2, !tbaa !17
  %69 = zext i16 %68 to i32
  %70 = and i32 %69, -1024
  %71 = icmp eq i32 %70, 56320
  br i1 %71, label %97, label %72

72:                                               ; preds = %65, %59
  %73 = getelementptr inbounds nuw %"class.icu_77::UTrie2StringIterator", ptr %6, i32 0, i32 0
  %74 = load ptr, ptr %73, align 8, !tbaa !80
  %75 = getelementptr inbounds nuw %struct.UTrie2, ptr %74, i32 0, i32 0
  %76 = load ptr, ptr %75, align 8, !tbaa !16
  %77 = getelementptr inbounds nuw %"class.icu_77::UTrie2StringIterator", ptr %6, i32 0, i32 0
  %78 = load ptr, ptr %77, align 8, !tbaa !80
  %79 = getelementptr inbounds nuw %struct.UTrie2, ptr %78, i32 0, i32 0
  %80 = load ptr, ptr %79, align 8, !tbaa !16
  %81 = getelementptr inbounds nuw %"class.icu_77::UTrie2StringIterator", ptr %6, i32 0, i32 3
  %82 = load i32, ptr %81, align 8, !tbaa !79
  %83 = ashr i32 %82, 5
  %84 = add nsw i32 320, %83
  %85 = sext i32 %84 to i64
  %86 = getelementptr inbounds i16, ptr %80, i64 %85
  %87 = load i16, ptr %86, align 2, !tbaa !17
  %88 = zext i16 %87 to i32
  %89 = shl i32 %88, 2
  %90 = getelementptr inbounds nuw %"class.icu_77::UTrie2StringIterator", ptr %6, i32 0, i32 3
  %91 = load i32, ptr %90, align 8, !tbaa !79
  %92 = and i32 %91, 31
  %93 = add nsw i32 %89, %92
  %94 = sext i32 %93 to i64
  %95 = getelementptr inbounds i16, ptr %76, i64 %94
  %96 = load i16, ptr %95, align 2, !tbaa !17
  store i16 %96, ptr %4, align 2, !tbaa !17
  br label %161

97:                                               ; preds = %65
  %98 = getelementptr inbounds nuw %"class.icu_77::UTrie2StringIterator", ptr %6, i32 0, i32 2
  %99 = load ptr, ptr %98, align 8, !tbaa !76
  %100 = getelementptr inbounds nuw i16, ptr %99, i32 1
  store ptr %100, ptr %98, align 8, !tbaa !76
  %101 = getelementptr inbounds nuw %"class.icu_77::UTrie2StringIterator", ptr %6, i32 0, i32 3
  %102 = load i32, ptr %101, align 8, !tbaa !79
  %103 = shl i32 %102, 10
  %104 = load i16, ptr %5, align 2, !tbaa !17
  %105 = zext i16 %104 to i32
  %106 = add nsw i32 %103, %105
  %107 = sub nsw i32 %106, 56613888
  %108 = getelementptr inbounds nuw %"class.icu_77::UTrie2StringIterator", ptr %6, i32 0, i32 3
  store i32 %107, ptr %108, align 8, !tbaa !79
  %109 = getelementptr inbounds nuw %"class.icu_77::UTrie2StringIterator", ptr %6, i32 0, i32 0
  %110 = load ptr, ptr %109, align 8, !tbaa !80
  %111 = getelementptr inbounds nuw %struct.UTrie2, ptr %110, i32 0, i32 0
  %112 = load ptr, ptr %111, align 8, !tbaa !16
  %113 = getelementptr inbounds nuw %"class.icu_77::UTrie2StringIterator", ptr %6, i32 0, i32 3
  %114 = load i32, ptr %113, align 8, !tbaa !79
  %115 = getelementptr inbounds nuw %"class.icu_77::UTrie2StringIterator", ptr %6, i32 0, i32 0
  %116 = load ptr, ptr %115, align 8, !tbaa !80
  %117 = getelementptr inbounds nuw %struct.UTrie2, ptr %116, i32 0, i32 9
  %118 = load i32, ptr %117, align 4, !tbaa !19
  %119 = icmp sge i32 %114, %118
  br i1 %119, label %120, label %125

120:                                              ; preds = %97
  %121 = getelementptr inbounds nuw %"class.icu_77::UTrie2StringIterator", ptr %6, i32 0, i32 0
  %122 = load ptr, ptr %121, align 8, !tbaa !80
  %123 = getelementptr inbounds nuw %struct.UTrie2, ptr %122, i32 0, i32 10
  %124 = load i32, ptr %123, align 8, !tbaa !20
  br label %156

125:                                              ; preds = %97
  %126 = getelementptr inbounds nuw %"class.icu_77::UTrie2StringIterator", ptr %6, i32 0, i32 0
  %127 = load ptr, ptr %126, align 8, !tbaa !80
  %128 = getelementptr inbounds nuw %struct.UTrie2, ptr %127, i32 0, i32 0
  %129 = load ptr, ptr %128, align 8, !tbaa !16
  %130 = getelementptr inbounds nuw %"class.icu_77::UTrie2StringIterator", ptr %6, i32 0, i32 0
  %131 = load ptr, ptr %130, align 8, !tbaa !80
  %132 = getelementptr inbounds nuw %struct.UTrie2, ptr %131, i32 0, i32 0
  %133 = load ptr, ptr %132, align 8, !tbaa !16
  %134 = getelementptr inbounds nuw %"class.icu_77::UTrie2StringIterator", ptr %6, i32 0, i32 3
  %135 = load i32, ptr %134, align 8, !tbaa !79
  %136 = ashr i32 %135, 11
  %137 = add nsw i32 2080, %136
  %138 = sext i32 %137 to i64
  %139 = getelementptr inbounds i16, ptr %133, i64 %138
  %140 = load i16, ptr %139, align 2, !tbaa !17
  %141 = zext i16 %140 to i32
  %142 = getelementptr inbounds nuw %"class.icu_77::UTrie2StringIterator", ptr %6, i32 0, i32 3
  %143 = load i32, ptr %142, align 8, !tbaa !79
  %144 = ashr i32 %143, 5
  %145 = and i32 %144, 63
  %146 = add nsw i32 %141, %145
  %147 = sext i32 %146 to i64
  %148 = getelementptr inbounds i16, ptr %129, i64 %147
  %149 = load i16, ptr %148, align 2, !tbaa !17
  %150 = zext i16 %149 to i32
  %151 = shl i32 %150, 2
  %152 = getelementptr inbounds nuw %"class.icu_77::UTrie2StringIterator", ptr %6, i32 0, i32 3
  %153 = load i32, ptr %152, align 8, !tbaa !79
  %154 = and i32 %153, 31
  %155 = add nsw i32 %151, %154
  br label %156

156:                                              ; preds = %125, %120
  %157 = phi i32 [ %124, %120 ], [ %155, %125 ]
  %158 = sext i32 %157 to i64
  %159 = getelementptr inbounds i16, ptr %112, i64 %158
  %160 = load i16, ptr %159, align 2, !tbaa !17
  store i16 %160, ptr %4, align 2, !tbaa !17
  br label %161

161:                                              ; preds = %156, %72
  br label %162

162:                                              ; preds = %161, %34
  call void @llvm.lifetime.end.p0(i64 2, ptr %5) #8
  br label %163

163:                                              ; preds = %162
  br label %164

164:                                              ; preds = %163
  %165 = load i16, ptr %4, align 2, !tbaa !17
  store i16 %165, ptr %2, align 2
  call void @llvm.lifetime.end.p0(i64 2, ptr %4) #8
  br label %166

166:                                              ; preds = %164, %15
  %167 = load i16, ptr %2, align 2
  ret i16 %167
}