; Function Attrs: mustprogress nofree norecurse nosync nounwind willreturn memory(read, argmem: readwrite, inaccessiblemem: none) uwtable
define noundef zeroext i16 @_ZN6icu_7727ForwardUTrie2StringIterator6next16Ev(ptr noundef nonnull align 8 captures(none) dereferenceable(40) initializes((8, 16), (24, 28)) %0) local_unnamed_addr #9 align 2 {
  %2 = getelementptr inbounds nuw i8, ptr %0, i64 16
  %3 = load ptr, ptr %2, align 8, !tbaa !63
  %4 = getelementptr inbounds nuw i8, ptr %0, i64 8
  store ptr %3, ptr %4, align 8, !tbaa !59
  %5 = getelementptr inbounds nuw i8, ptr %0, i64 32
  %6 = load ptr, ptr %5, align 8, !tbaa !70
  %7 = icmp eq ptr %3, %6
  br i1 %7, label %8, label %14

8:                                                ; preds = %1
  %9 = getelementptr inbounds nuw i8, ptr %0, i64 24
  store i32 -1, ptr %9, align 8, !tbaa !66
  %10 = load ptr, ptr %0, align 8, !tbaa !67
  %11 = getelementptr inbounds nuw i8, ptr %10, i64 40
  %12 = load i32, ptr %11, align 8, !tbaa !20
  %13 = trunc i32 %12 to i16
  br label %89

14:                                               ; preds = %1
  %15 = getelementptr inbounds nuw i8, ptr %3, i64 2
  store ptr %15, ptr %2, align 8, !tbaa !63
  %16 = load i16, ptr %3, align 2, !tbaa !68
  %17 = zext i16 %16 to i32
  %18 = getelementptr inbounds nuw i8, ptr %0, i64 24
  store i32 %17, ptr %18, align 8, !tbaa !66
  %19 = and i32 %17, 64512
  %20 = icmp eq i32 %19, 55296
  br i1 %20, label %34, label %21

21:                                               ; preds = %14
  %22 = load ptr, ptr %0, align 8, !tbaa !67
  %23 = load ptr, ptr %22, align 8, !tbaa !13
  %24 = lshr i32 %17, 5
  %25 = zext nneg i32 %24 to i64
  %26 = getelementptr inbounds nuw i16, ptr %23, i64 %25
  %27 = load i16, ptr %26, align 2, !tbaa !14
  %28 = zext i16 %27 to i32
  %29 = shl nuw nsw i32 %28, 2
  %30 = and i32 %17, 31
  %31 = add nuw nsw i32 %29, %30
  %32 = zext nneg i32 %31 to i64
  %33 = getelementptr inbounds nuw i16, ptr %23, i64 %32
  br label %88

34:                                               ; preds = %14
  %35 = icmp eq ptr %15, %6
  br i1 %35, label %41, label %36

36:                                               ; preds = %34
  %37 = load i16, ptr %15, align 2, !tbaa !68
  %38 = zext i16 %37 to i32
  %39 = and i32 %38, 64512
  %40 = icmp eq i32 %39, 56320
  br i1 %40, label %55, label %41

41:                                               ; preds = %36, %34
  %42 = load ptr, ptr %0, align 8, !tbaa !67
  %43 = load ptr, ptr %42, align 8, !tbaa !13
  %44 = lshr i32 %17, 5
  %45 = zext nneg i32 %44 to i64
  %46 = getelementptr i16, ptr %43, i64 %45
  %47 = getelementptr i8, ptr %46, i64 640
  %48 = load i16, ptr %47, align 2, !tbaa !14
  %49 = zext i16 %48 to i32
  %50 = shl nuw nsw i32 %49, 2
  %51 = and i32 %17, 31
  %52 = add nuw nsw i32 %50, %51
  %53 = zext nneg i32 %52 to i64
  %54 = getelementptr inbounds nuw i16, ptr %43, i64 %53
  br label %88

55:                                               ; preds = %36
  %56 = getelementptr inbounds nuw i8, ptr %3, i64 4
  store ptr %56, ptr %2, align 8, !tbaa !63
  %57 = shl nuw nsw i32 %17, 10
  %58 = add nsw i32 %57, -56613888
  %59 = add nuw nsw i32 %58, %38
  store i32 %59, ptr %18, align 8, !tbaa !66
  %60 = load ptr, ptr %0, align 8, !tbaa !67
  %61 = load ptr, ptr %60, align 8, !tbaa !13
  %62 = getelementptr inbounds nuw i8, ptr %60, i64 44
  %63 = load i32, ptr %62, align 4, !tbaa !16
  %.not = icmp slt i32 %59, %63
  br i1 %.not, label %67, label %64

64:                                               ; preds = %55
  %65 = getelementptr inbounds nuw i8, ptr %60, i64 48
  %66 = load i32, ptr %65, align 8, !tbaa !17
  br label %84

67:                                               ; preds = %55
  %68 = lshr i32 %59, 11
  %69 = zext nneg i32 %68 to i64
  %70 = getelementptr i16, ptr %61, i64 %69
  %71 = getelementptr i8, ptr %70, i64 4160
  %72 = load i16, ptr %71, align 2, !tbaa !14
  %73 = zext i16 %72 to i32
  %74 = lshr i32 %59, 5
  %75 = and i32 %74, 63
  %76 = add nuw nsw i32 %75, %73
  %77 = zext nneg i32 %76 to i64
  %78 = getelementptr inbounds nuw i16, ptr %61, i64 %77
  %79 = load i16, ptr %78, align 2, !tbaa !14
  %80 = zext i16 %79 to i32
  %81 = shl nuw nsw i32 %80, 2
  %82 = and i32 %38, 31
  %83 = add nuw nsw i32 %81, %82
  br label %84

84:                                               ; preds = %67, %64
  %85 = phi i32 [ %66, %64 ], [ %83, %67 ]
  %86 = sext i32 %85 to i64
  %87 = getelementptr inbounds i16, ptr %61, i64 %86
  br label %88

88:                                               ; preds = %41, %84, %21
  %.03.in = phi ptr [ %54, %41 ], [ %87, %84 ], [ %33, %21 ]
  %.03 = load i16, ptr %.03.in, align 2, !tbaa !14
  br label %89

89:                                               ; preds = %88, %8
  %.0 = phi i16 [ %13, %8 ], [ %.03, %88 ]
  ret i16 %.0
}